target datalayout = "e-m:e-p270:32:32-p271:32:32-p272:64:64-i64:64-i128:128-f80:128-n8:16:32:64-S128"
target triple = "x86_64-pc-linux-gnu"

%struct.UCMTable = type { ptr, i32, i32, ptr, i32, i32, ptr, i32, i32, ptr, i8, i8, i8 }

@stderr = external global ptr, align 8
@.str = private unnamed_addr constant [42 x i8] c"ucm error: unable to allocate reverseMap\0A\00", align 1
@.str.1 = private unnamed_addr constant [52 x i8] c"ucm error: sortTable()/uprv_sortArray() fails - %s\0A\00", align 1

; Function Attrs: inlinehint mustprogress nounwind uwtable
define internal noundef signext i8 @_ZL9U_FAILURE10UErrorCode(i32 noundef %0) #6 {
  %2 = alloca i32, align 4
  store i32 %0, ptr %2, align 4, !tbaa !36
  %3 = load i32, ptr %2, align 4, !tbaa !36
  %4 = icmp sgt i32 %3, 0
  %5 = zext i1 %4 to i8
  ret i8 %5
}

; Function Attrs: mustprogress uwtable
define void @ucm_sortTable(ptr noundef %0) #0 {
  %2 = alloca ptr, align 8
  %3 = alloca i32, align 4
  %4 = alloca i32, align 4
  %5 = alloca i32, align 4
  store ptr %0, ptr %2, align 8, !tbaa !3
  call void @llvm.lifetime.start.p0(i64 4, ptr %3) #12
  call void @llvm.lifetime.start.p0(i64 4, ptr %4) #12
  %6 = load ptr, ptr %2, align 8, !tbaa !3
  %7 = getelementptr inbounds nuw %struct.UCMTable, ptr %6, i32 0, i32 12
  %8 = load i8, ptr %7, align 2, !tbaa !35
  %9 = icmp ne i8 %8, 0
  br i1 %9, label %10, label %11

10:                                               ; preds = %1
  store i32 1, ptr %5, align 4
  br label %78

11:                                               ; preds = %1
  store i32 0, ptr %3, align 4, !tbaa !36
  %12 = load ptr, ptr %2, align 8, !tbaa !3
  %13 = getelementptr inbounds nuw %struct.UCMTable, ptr %12, i32 0, i32 0
  %14 = load ptr, ptr %13, align 8, !tbaa !30
  %15 = load ptr, ptr %2, align 8, !tbaa !3
  %16 = getelementptr inbounds nuw %struct.UCMTable, ptr %15, i32 0, i32 2
  %17 = load i32, ptr %16, align 4, !tbaa !31
  %18 = load ptr, ptr %2, align 8, !tbaa !3
  call void @uprv_sortArray_77(ptr noundef %14, i32 noundef %17, i32 noundef 12, ptr noundef @_ZL27compareMappingsUnicodeFirstPKvS0_S0_, ptr noundef %18, i8 noundef signext 0, ptr noundef %3)
  %19 = load ptr, ptr %2, align 8, !tbaa !3
  %20 = getelementptr inbounds nuw %struct.UCMTable, ptr %19, i32 0, i32 9
  %21 = load ptr, ptr %20, align 8, !tbaa !33
  %22 = icmp eq ptr %21, null
  br i1 %22, label %23, label %40

23:                                               ; preds = %11
  %24 = load ptr, ptr %2, align 8, !tbaa !3
  %25 = getelementptr inbounds nuw %struct.UCMTable, ptr %24, i32 0, i32 1
  %26 = load i32, ptr %25, align 8, !tbaa !38
  %27 = sext i32 %26 to i64
  %28 = mul i64 %27, 4
  %29 = call noalias ptr @uprv_malloc_77(i64 noundef %28) #13
  %30 = load ptr, ptr %2, align 8, !tbaa !3
  %31 = getelementptr inbounds nuw %struct.UCMTable, ptr %30, i32 0, i32 9
  store ptr %29, ptr %31, align 8, !tbaa !33
  %32 = load ptr, ptr %2, align 8, !tbaa !3
  %33 = getelementptr inbounds nuw %struct.UCMTable, ptr %32, i32 0, i32 9
  %34 = load ptr, ptr %33, align 8, !tbaa !33
  %35 = icmp eq ptr %34, null
  br i1 %35, label %36, label %39

36:                                               ; preds = %23
  %37 = load ptr, ptr @stderr, align 8, !tbaa !10
  %38 = call i32 (ptr, ptr, ...) @fprintf(ptr noundef %37, ptr noundef @.str) #12
  call void @exit(i32 noundef 7) #14
  unreachable

39:                                               ; preds = %23
  br label %40

40:                                               ; preds = %39, %11
  store i32 0, ptr %4, align 4, !tbaa !25
  br label %41

41:                                               ; preds = %55, %40
  %42 = load i32, ptr %4, align 4, !tbaa !25
  %43 = load ptr, ptr %2, align 8, !tbaa !3
  %44 = getelementptr inbounds nuw %struct.UCMTable, ptr %43, i32 0, i32 2
  %45 = load i32, ptr %44, align 4, !tbaa !31
  %46 = icmp slt i32 %42, %45
  br i1 %46, label %47, label %58

47:                                               ; preds = %41
  %48 = load i32, ptr %4, align 4, !tbaa !25
  %49 = load ptr, ptr %2, align 8, !tbaa !3
  %50 = getelementptr inbounds nuw %struct.UCMTable, ptr %49, i32 0, i32 9
  %51 = load ptr, ptr %50, align 8, !tbaa !33
  %52 = load i32, ptr %4, align 4, !tbaa !25
  %53 = sext i32 %52 to i64
  %54 = getelementptr inbounds i32, ptr %51, i64 %53
  store i32 %48, ptr %54, align 4, !tbaa !25
  br label %55

55:                                               ; preds = %47
  %56 = load i32, ptr %4, align 4, !tbaa !25
  %57 = add nsw i32 %56, 1
  store i32 %57, ptr %4, align 4, !tbaa !25
  br label %41, !llvm.loop !39

58:                                               ; preds = %41
  %59 = load ptr, ptr %2, align 8, !tbaa !3
  %60 = getelementptr inbounds nuw %struct.UCMTable, ptr %59, i32 0, i32 9
  %61 = load ptr, ptr %60, align 8, !tbaa !33
  %62 = load ptr, ptr %2, align 8, !tbaa !3
  %63 = getelementptr inbounds nuw %struct.UCMTable, ptr %62, i32 0, i32 2
  %64 = load i32, ptr %63, align 4, !tbaa !31
  %65 = load ptr, ptr %2, align 8, !tbaa !3
  call void @uprv_sortArray_77(ptr noundef %61, i32 noundef %64, i32 noundef 4, ptr noundef @_ZL25compareMappingsBytesFirstPKvS0_S0_, ptr noundef %65, i8 noundef signext 0, ptr noundef %3)
  %66 = load i32, ptr %3, align 4, !tbaa !36
  %67 = call noundef signext i8 @_ZL9U_FAILURE10UErrorCode(i32 noundef %66)
  %68 = icmp ne i8 %67, 0
  br i1 %68, label %69, label %75

69:                                               ; preds = %58
  %70 = load ptr, ptr @stderr, align 8, !tbaa !10
  %71 = load i32, ptr %3, align 4, !tbaa !36
  %72 = call ptr @u_errorName_77(i32 noundef %71)
  %73 = call i32 (ptr, ptr, ...) @fprintf(ptr noundef %70, ptr noundef @.str.1, ptr noundef %72) #12
  %74 = load i32, ptr %3, align 4, !tbaa !36
  call void @exit(i32 noundef %74) #14
  unreachable

75:                                               ; preds = %58
  %76 = load ptr, ptr %2, align 8, !tbaa !3
  %77 = getelementptr inbounds nuw %struct.UCMTable, ptr %76, i32 0, i32 12
  store i8 1, ptr %77, align 2, !tbaa !35
  store i32 0, ptr %5, align 4
  br label %78

78:                                               ; preds = %75, %10
  call void @llvm.lifetime.end.p0(i64 4, ptr %4) #12
  call void @llvm.lifetime.end.p0(i64 4, ptr %3) #12
  %79 = load i32, ptr %5, align 4
  switch i32 %79, label %81 [
    i32 0, label %80
    i32 1, label %80
  ]

80:                                               ; preds = %78, %78
  ret void

81:                                               ; preds = %78
  unreachable
}