; Function Attrs: mustprogress uwtable
define void @ucm_sortTable(ptr noundef %0) local_unnamed_addr #2 {
  %2 = alloca i32, align 4
  call void @llvm.lifetime.start.p0(i64 4, ptr nonnull %2) #16
  %3 = getelementptr inbounds nuw i8, ptr %0, i64 58
  %4 = load i8, ptr %3, align 2, !tbaa !28
  %.not = icmp eq i8 %4, 0
  br i1 %.not, label %5, label %39

5:                                                ; preds = %1
  store i32 0, ptr %2, align 4, !tbaa !29
  %6 = load ptr, ptr %0, align 8, !tbaa !23
  %7 = getelementptr inbounds nuw i8, ptr %0, i64 12
  %8 = load i32, ptr %7, align 4, !tbaa !24
  call void @uprv_sortArray_77(ptr noundef %6, i32 noundef %8, i32 noundef 12, ptr noundef nonnull @_ZL27compareMappingsUnicodeFirstPKvS0_S0_, ptr noundef nonnull %0, i8 noundef signext 0, ptr noundef nonnull %2)
  %9 = getelementptr inbounds nuw i8, ptr %0, i64 48
  %10 = load ptr, ptr %9, align 8, !tbaa !26
  %11 = icmp eq ptr %10, null
  br i1 %11, label %12, label %22

12:                                               ; preds = %5
  %13 = getelementptr inbounds nuw i8, ptr %0, i64 8
  %14 = load i32, ptr %13, align 8, !tbaa !31
  %15 = sext i32 %14 to i64
  %16 = shl nsw i64 %15, 2
  %17 = call noalias ptr @uprv_malloc_77(i64 noundef %16) #17
  store ptr %17, ptr %9, align 8, !tbaa !26
  %18 = icmp eq ptr %17, null
  br i1 %18, label %19, label %22

19:                                               ; preds = %12
  %20 = load ptr, ptr @stderr, align 8, !tbaa !32
  %21 = call i64 @fwrite(ptr nonnull @.str, i64 41, i64 1, ptr %20) #18
  call void @exit(i32 noundef 7) #19
  unreachable

22:                                               ; preds = %12, %5
  %23 = phi ptr [ %17, %12 ], [ %10, %5 ]
  %24 = load i32, ptr %7, align 4, !tbaa !24
  %25 = icmp sgt i32 %24, 0
  br i1 %25, label %.lr.ph, label %._crit_edge

.lr.ph:                                           ; preds = %22, %.lr.ph
  %indvars.iv = phi i64 [ %indvars.iv.next, %.lr.ph ], [ 0, %22 ]
  %26 = getelementptr inbounds nuw i32, ptr %23, i64 %indvars.iv
  %27 = trunc nuw nsw i64 %indvars.iv to i32
  store i32 %27, ptr %26, align 4, !tbaa !18
  %indvars.iv.next = add nuw nsw i64 %indvars.iv, 1
  %28 = load i32, ptr %7, align 4, !tbaa !24
  %29 = sext i32 %28 to i64
  %30 = icmp slt i64 %indvars.iv.next, %29
  br i1 %30, label %.lr.ph, label %._crit_edge, !llvm.loop !34

._crit_edge:                                      ; preds = %.lr.ph, %22
  %.lcssa = phi i32 [ %24, %22 ], [ %28, %.lr.ph ]
  call void @uprv_sortArray_77(ptr noundef nonnull %23, i32 noundef %.lcssa, i32 noundef 4, ptr noundef nonnull @_ZL25compareMappingsBytesFirstPKvS0_S0_, ptr noundef nonnull %0, i8 noundef signext 0, ptr noundef nonnull %2)
  %31 = load i32, ptr %2, align 4, !tbaa !29
  %32 = icmp slt i32 %31, 1
  br i1 %32, label %38, label %33

33:                                               ; preds = %._crit_edge
  %34 = load ptr, ptr @stderr, align 8, !tbaa !32
  %35 = call ptr @u_errorName_77(i32 noundef %31)
  %36 = call i32 (ptr, ptr, ...) @fprintf(ptr noundef %34, ptr noundef nonnull @.str.1, ptr noundef %35) #20
  %37 = load i32, ptr %2, align 4, !tbaa !29
  call void @exit(i32 noundef %37) #21
  unreachable

38:                                               ; preds = %._crit_edge
  store i8 1, ptr %3, align 2, !tbaa !28
  br label %39

39:                                               ; preds = %1, %38
  call void @llvm.lifetime.end.p0(i64 4, ptr nonnull %2) #16
  ret void
}